; Function Attrs: mustprogress uwtable
define void @_ZN32pxrInternal_v0_24__pxrReserved__24Sdf_TextFileFormatParser22_DictionaryInsertValueERKNS_17Sdf_ParserHelpers5ValueEPNS_21Sdf_TextParserContextE(ptr noundef nonnull align 8 dereferenceable(72) %0, ptr noundef %1) local_unnamed_addr #0 {
  %3 = getelementptr inbounds nuw i8, ptr %1, i64 856
  %4 = getelementptr inbounds i8, ptr %1, i64 864
  %5 = load ptr, ptr %4, align 8
  %6 = load ptr, ptr %3, align 8
  %7 = ptrtoint ptr %5 to i64
  %8 = ptrtoint ptr %6 to i64
  %9 = sub i64 %7, %8
  %10 = getelementptr inbounds nuw i8, ptr %1, i64 840
  %11 = getelementptr i8, ptr %6, i64 %9
  %12 = getelementptr i8, ptr %11, i64 -16
  %13 = tail call noundef nonnull align 8 dereferenceable(32) ptr @_ZNK32pxrInternal_v0_24__pxrReserved__17Sdf_ParserHelpers5Value3GetINSt7__cxx1112basic_stringIcSt11char_traitsIcESaIcEEEEENS0_8_GetImplIT_vE10ResultTypeEv(ptr noundef nonnull align 8 dereferenceable(72) %0)
  %14 = tail call noundef nonnull align 8 dereferenceable(16) ptr @_ZN32pxrInternal_v0_24__pxrReserved__12VtDictionaryixERKNSt7__cxx1112basic_stringIcSt11char_traitsIcESaIcEEE(ptr noundef nonnull align 8 dereferenceable(8) %12, ptr noundef nonnull align 8 dereferenceable(32) %13)
  %.not.i = icmp eq ptr %14, %10
  br i1 %.not.i, label %_ZN32pxrInternal_v0_24__pxrReserved__7VtValueaSERKS0_.exit, label %15

15:                                               ; preds = %2
  tail call void @_ZN32pxrInternal_v0_24__pxrReserved__7VtValue5_CopyERKS0_RS0_(ptr noundef nonnull align 8 dereferenceable(16) %10, ptr noundef nonnull align 8 dereferenceable(16) %14)
  br label %_ZN32pxrInternal_v0_24__pxrReserved__7VtValueaSERKS0_.exit

_ZN32pxrInternal_v0_24__pxrReserved__7VtValueaSERKS0_.exit: ; preds = %2, %15
  ret void
}